target datalayout = "e-m:e-p270:32:32-p271:32:32-p272:64:64-i64:64-i128:128-f80:128-n8:16:32:64-S128"
target triple = "x86_64-pc-linux-gnu"

%struct.RLTable = type { i32, i32, ptr, ptr, ptr, [2 x ptr], [2 x ptr], [2 x ptr], [32 x ptr] }

@fcode_tab = internal global [8193 x i8] zeroinitializer, align 16
@uni_mpeg4_intra_rl_len = internal global [16384 x i8] zeroinitializer, align 16
@uni_mpeg4_inter_rl_len = internal global [16384 x i8] zeroinitializer, align 16
@uni_mpeg4_intra_rl_bits = internal global [16384 x i32] zeroinitializer, align 16
@uni_mpeg4_inter_rl_bits = internal global [16384 x i32] zeroinitializer, align 16
@ff_mpeg4_rl_intra = external global %struct.RLTable, align 8
@ff_h263_rl_inter = external global %struct.RLTable, align 8

; Function Attrs: cold nounwind optsize uwtable
define internal void @mpeg4_encode_init_static() #5 {
  %1 = alloca i32, align 4
  %2 = alloca i32, align 4
  %3 = alloca i32, align 4
  call void @init_uni_dc_tab() #13
  call void @ff_mpeg4_init_rl_intra()
  call void @init_uni_mpeg4_rl_tab(ptr noundef @ff_mpeg4_rl_intra, ptr noundef @uni_mpeg4_intra_rl_bits, ptr noundef @uni_mpeg4_intra_rl_len) #13
  call void @init_uni_mpeg4_rl_tab(ptr noundef @ff_h263_rl_inter, ptr noundef @uni_mpeg4_inter_rl_bits, ptr noundef @uni_mpeg4_inter_rl_len) #13
  call void @llvm.lifetime.start.p0(i64 4, ptr %1) #10
  store i32 7, ptr %1, align 4, !tbaa !49
  br label %4

4:                                                ; preds = %29, %0
  %5 = load i32, ptr %1, align 4, !tbaa !49
  %6 = icmp sgt i32 %5, 0
  br i1 %6, label %8, label %7

7:                                                ; preds = %4
  store i32 2, ptr %2, align 4
  call void @llvm.lifetime.end.p0(i64 4, ptr %1) #10
  br label %32

8:                                                ; preds = %4
  call void @llvm.lifetime.start.p0(i64 4, ptr %3) #10
  %9 = load i32, ptr %1, align 4, !tbaa !49
  %10 = shl i32 16, %9
  %11 = sub nsw i32 0, %10
  store i32 %11, ptr %3, align 4, !tbaa !49
  br label %12

12:                                               ; preds = %25, %8
  %13 = load i32, ptr %3, align 4, !tbaa !49
  %14 = load i32, ptr %1, align 4, !tbaa !49
  %15 = shl i32 16, %14
  %16 = icmp slt i32 %13, %15
  br i1 %16, label %18, label %17

17:                                               ; preds = %12
  store i32 5, ptr %2, align 4
  call void @llvm.lifetime.end.p0(i64 4, ptr %3) #10
  br label %28

18:                                               ; preds = %12
  %19 = load i32, ptr %1, align 4, !tbaa !49
  %20 = trunc i32 %19 to i8
  %21 = load i32, ptr %3, align 4, !tbaa !49
  %22 = add nsw i32 %21, 4096
  %23 = sext i32 %22 to i64
  %24 = getelementptr inbounds [8193 x i8], ptr @fcode_tab, i64 0, i64 %23
  store i8 %20, ptr %24, align 1, !tbaa !52
  br label %25

25:                                               ; preds = %18
  %26 = load i32, ptr %3, align 4, !tbaa !49
  %27 = add nsw i32 %26, 1
  store i32 %27, ptr %3, align 4, !tbaa !49
  br label %12, !llvm.loop !182

28:                                               ; preds = %17
  br label %29

29:                                               ; preds = %28
  %30 = load i32, ptr %1, align 4, !tbaa !49
  %31 = add nsw i32 %30, -1
  store i32 %31, ptr %1, align 4, !tbaa !49
  br label %4, !llvm.loop !183

32:                                               ; preds = %7
  ret void
}