; Function Attrs: cold nounwind optsize uwtable
define internal void @mpeg4_encode_init_static() #4 {
  tail call fastcc void @init_uni_dc_tab() #15
  tail call void @ff_mpeg4_init_rl_intra() #13
  tail call fastcc void @init_uni_mpeg4_rl_tab(ptr noundef nonnull @ff_mpeg4_rl_intra, ptr noundef nonnull @uni_mpeg4_intra_rl_bits, ptr noundef nonnull @uni_mpeg4_intra_rl_len) #15
  tail call fastcc void @init_uni_mpeg4_rl_tab(ptr noundef nonnull @ff_h263_rl_inter, ptr noundef nonnull @uni_mpeg4_inter_rl_bits, ptr noundef nonnull @uni_mpeg4_inter_rl_len) #15
  br label %2

1:                                                ; preds = %._crit_edge
  ret void

2:                                                ; preds = %0, %._crit_edge
  %.0810 = phi i32 [ 7, %0 ], [ %12, %._crit_edge ]
  %3 = shl i32 16, %.0810
  %4 = icmp sgt i32 %3, 0
  br i1 %4, label %.lr.ph, label %._crit_edge

.lr.ph:                                           ; preds = %2
  %5 = trunc i32 %.0810 to i8
  %6 = sub nsw i32 4096, %3
  %7 = sext i32 %6 to i64
  %scevgep = getelementptr i8, ptr @fcode_tab, i64 %7
  %8 = shl i32 32, %.0810
  %9 = add i32 %8, -32
  %10 = zext i32 %9 to i64
  %11 = add nuw nsw i64 %10, 32
  tail call void @llvm.memset.p0.i64(ptr noundef nonnull align 16 dereferenceable(1) %scevgep, i8 %5, i64 %11, i1 false), !tbaa !49
  br label %._crit_edge

._crit_edge:                                      ; preds = %.lr.ph, %2
  %12 = add nsw i32 %.0810, -1
  %13 = icmp samesign ugt i32 %.0810, 1
  br i1 %13, label %2, label %1, !llvm.loop !198
}